(lp0
(dp1
Vdomain
p2
Vway2automation.com
p3
sVname
p4
VPHPSESSID
p5
sVvalue
p6
V18ao477c4ijr9gjq0lu29phvq6
p7
sVpath
p8
V/
p9
sVhttpOnly
p10
I00
sVsecure
p11
I00
sa(dp12
Vdomain
p13
V.way2automation.com
p14
sVsecure
p15
I00
sVvalue
p16
VjOgsj1s0FdJh5B
p17
sVexpiry
p18
I1541698802
sVpath
p19
g9
sVhttpOnly
p20
I00
sVname
p21
V__zlcmid
p22
sa.